; Function Attrs: mustprogress nounwind uwtable
define dso_local void @_ZN16StatementArrayOpD2Ev(ptr noundef nonnull align 8 dereferenceable(128) initializes((0, 8)) %0) unnamed_addr #7 align 2 personality ptr @__gxx_personality_v0 {
  store ptr getelementptr inbounds nuw inrange(-16, 80) (i8, ptr @_ZTV16StatementArrayOp, i64 16), ptr %0, align 8, !tbaa !8
  %2 = getelementptr inbounds nuw i8, ptr %0, i64 120
  %3 = load ptr, ptr %2, align 8, !tbaa !132
  %4 = icmp eq ptr %3, null
  br i1 %4, label %9, label %5

5:                                                ; preds = %1
  %6 = load ptr, ptr %3, align 8, !tbaa !8
  %7 = getelementptr inbounds nuw i8, ptr %6, i64 8
  %8 = load ptr, ptr %7, align 8
  tail call void %8(ptr noundef nonnull align 8 dereferenceable(24) %3) #17
  br label %9

9:                                                ; preds = %5, %1
  %10 = getelementptr inbounds nuw i8, ptr %0, i64 112
  %11 = load ptr, ptr %10, align 8, !tbaa !131
  %12 = icmp eq ptr %11, null
  br i1 %12, label %17, label %13

13:                                               ; preds = %9
  %14 = load ptr, ptr %11, align 8, !tbaa !8
  %15 = getelementptr inbounds nuw i8, ptr %14, i64 8
  %16 = load ptr, ptr %15, align 8
  tail call void %16(ptr noundef nonnull align 8 dereferenceable(192) %11) #17
  br label %17

17:                                               ; preds = %13, %9
  %18 = getelementptr inbounds nuw i8, ptr %0, i64 88
  %19 = load ptr, ptr %18, align 8, !tbaa !118
  %.not.i.i.i = icmp eq ptr %19, null
  br i1 %.not.i.i.i, label %_ZNSt6vectorIiSaIiEED2Ev.exit, label %20

20:                                               ; preds = %17
  %21 = getelementptr inbounds nuw i8, ptr %0, i64 104
  %22 = load ptr, ptr %21, align 8, !tbaa !14
  %23 = ptrtoint ptr %22 to i64
  %24 = ptrtoint ptr %19 to i64
  %25 = sub i64 %23, %24
  tail call void @_ZdlPvm(ptr noundef nonnull %19, i64 noundef %25) #20
  br label %_ZNSt6vectorIiSaIiEED2Ev.exit

_ZNSt6vectorIiSaIiEED2Ev.exit:                    ; preds = %17, %20
  %26 = getelementptr inbounds nuw i8, ptr %0, i64 64
  %27 = load ptr, ptr %26, align 8, !tbaa !118
  %.not.i.i.i2 = icmp eq ptr %27, null
  br i1 %.not.i.i.i2, label %_ZNSt6vectorIiSaIiEED2Ev.exit3, label %28

28:                                               ; preds = %_ZNSt6vectorIiSaIiEED2Ev.exit
  %29 = getelementptr inbounds nuw i8, ptr %0, i64 80
  %30 = load ptr, ptr %29, align 8, !tbaa !14
  %31 = ptrtoint ptr %30 to i64
  %32 = ptrtoint ptr %27 to i64
  %33 = sub i64 %31, %32
  tail call void @_ZdlPvm(ptr noundef nonnull %27, i64 noundef %33) #20
  br label %_ZNSt6vectorIiSaIiEED2Ev.exit3

_ZNSt6vectorIiSaIiEED2Ev.exit3:                   ; preds = %_ZNSt6vectorIiSaIiEED2Ev.exit, %28
  %34 = getelementptr inbounds nuw i8, ptr %0, i64 40
  %35 = load ptr, ptr %34, align 8, !tbaa !63
  %.not.i.i.i4 = icmp eq ptr %35, null
  br i1 %.not.i.i.i4, label %_ZNSt6vectorIPK8VariableSaIS2_EED2Ev.exit, label %36

36:                                               ; preds = %_ZNSt6vectorIiSaIiEED2Ev.exit3
  %37 = getelementptr inbounds nuw i8, ptr %0, i64 56
  %38 = load ptr, ptr %37, align 8, !tbaa !62
  %39 = ptrtoint ptr %38 to i64
  %40 = ptrtoint ptr %35 to i64
  %41 = sub i64 %39, %40
  tail call void @_ZdlPvm(ptr noundef nonnull %35, i64 noundef %41) #20
  br label %_ZNSt6vectorIPK8VariableSaIS2_EED2Ev.exit

_ZNSt6vectorIPK8VariableSaIS2_EED2Ev.exit:        ; preds = %_ZNSt6vectorIiSaIiEED2Ev.exit3, %36
  tail call void @_ZN9StatementD2Ev(ptr noundef nonnull align 8 dereferenceable(32) %0) #17
  ret void
}